; Function Attrs: mustprogress nounwind uwtable
define hidden noundef zeroext i1 @_ZNK14ZCollectedHeap17requires_barriersEP17stackChunkOopDesc(ptr noundef nonnull align 64 dereferenceable(16344) %0, ptr noundef %1) unnamed_addr #1 align 2 {
  %3 = getelementptr inbounds i8, ptr %0, i64 192
  %4 = ptrtoint ptr %1 to i64
  %5 = tail call noundef zeroext i1 @_ZNK5ZHeap13is_allocatingE8zaddress(ptr noundef nonnull align 64 dereferenceable(15937) %3, i64 noundef %4) #12
  br i1 %5, label %6, label %_ZN13ZContinuation17requires_barriersEPK5ZHeapP17stackChunkOopDesc.exit

6:                                                ; preds = %2
  %7 = load i32, ptr @_ZN26jdk_internal_vm_StackChunk12_size_offsetE, align 4
  %8 = sext i32 %7 to i64
  %9 = add nsw i64 %8, %4
  %10 = inttoptr i64 %9 to ptr
  %11 = load i32, ptr %10, align 4
  %12 = load i32, ptr @_ZN23InstanceStackChunkKlass16_offset_of_stackE, align 4
  %13 = sext i32 %12 to i64
  %14 = add nsw i64 %13, %4
  %15 = inttoptr i64 %14 to ptr
  %16 = sext i32 %11 to i64
  %17 = getelementptr inbounds ptr, ptr %15, i64 %16
  %18 = load i64, ptr %17, align 8
  %19 = load i64, ptr @ZPointerStoreGoodMask, align 8
  %.not.i = icmp ne i64 %18, %19
  br label %_ZN13ZContinuation17requires_barriersEPK5ZHeapP17stackChunkOopDesc.exit

_ZN13ZContinuation17requires_barriersEPK5ZHeapP17stackChunkOopDesc.exit: ; preds = %2, %6
  %.0.i = phi i1 [ true, %2 ], [ %.not.i, %6 ]
  ret i1 %.0.i
}